BL51 BANKED LINKER/LOCATER V6.22.2.0                                                    08/31/2021  12:55:22  PAGE 1


BL51 BANKED LINKER/LOCATER V6.22.2.0, INVOKED BY:
F:\KEIL_V5\C51\BIN\BL51.EXE .\Objects\main.obj, .\Objects\mcu_api.obj, .\Objects\protocol.obj, .\Objects\system.obj TO .
>> \Objects\test PRINT (.\Listings\test.m51) RAMSIZE (256)


MEMORY MODEL: LARGE


INPUT MODULES INCLUDED:
  .\Objects\main.obj (MAIN)
  .\Objects\mcu_api.obj (MCU_API)
  .\Objects\protocol.obj (PROTOCOL)
  .\Objects\system.obj (SYSTEM)
  F:\KEIL_V5\C51\LIB\C51L.LIB (?C_STARTUP)
  F:\KEIL_V5\C51\LIB\C51L.LIB (?C?COPY)
  F:\KEIL_V5\C51\LIB\C51L.LIB (?C?CLDPTR)
  F:\KEIL_V5\C51\LIB\C51L.LIB (?C?CLDOPTR)
  F:\KEIL_V5\C51\LIB\C51L.LIB (?C?CSTPTR)
  F:\KEIL_V5\C51\LIB\C51L.LIB (?C?CSTOPTR)
  F:\KEIL_V5\C51\LIB\C51L.LIB (?C?IMUL)
  F:\KEIL_V5\C51\LIB\C51L.LIB (?C?UIDIV)
  F:\KEIL_V5\C51\LIB\C51L.LIB (?C?IILDX)
  F:\KEIL_V5\C51\LIB\C51L.LIB (?C?ILDIX)
  F:\KEIL_V5\C51\LIB\C51L.LIB (?C?LMUL)
  F:\KEIL_V5\C51\LIB\C51L.LIB (?C?SLDIV)
  F:\KEIL_V5\C51\LIB\C51L.LIB (?C?LNEG)
  F:\KEIL_V5\C51\LIB\C51L.LIB (?C?ULCMP)
  F:\KEIL_V5\C51\LIB\C51L.LIB (?C?ULSHR)
  F:\KEIL_V5\C51\LIB\C51L.LIB (?C?LSHL)
  F:\KEIL_V5\C51\LIB\C51L.LIB (?C?LSTXDATA)
  F:\KEIL_V5\C51\LIB\C51L.LIB (?C?LSTKXDATA)
  F:\KEIL_V5\C51\LIB\C51L.LIB (?C?CCASE)
  F:\KEIL_V5\C51\LIB\C51L.LIB (ISDIGIT)
  F:\KEIL_V5\C51\LIB\C51L.LIB (ISSPACE)
  F:\KEIL_V5\C51\LIB\C51L.LIB (?C_INIT)
  F:\KEIL_V5\C51\LIB\C51L.LIB (?C?ULDIV)


LINK MAP OF MODULE:  .\Objects\test (MAIN)


            TYPE    BASE      LENGTH    RELOCATION   SEGMENT NAME
            -----------------------------------------------------

            * * * * * * *   D A T A   M E M O R Y   * * * * * * *
            REG     0000H     0008H     ABSOLUTE     "REG BANK 0"
            IDATA   0008H     0001H     UNIT         ?STACK

            * * * * * * *  X D A T A   M E M O R Y  * * * * * * *
            XDATA   0000H     02EDH     UNIT         ?XD?SYSTEM
            XDATA   02EDH     0050H     UNIT         _XDATA_GROUP_
            XDATA   033DH     000AH     UNIT         ?XD?MCU_API
            XDATA   0347H     0009H     UNIT         ?XD?MAIN
            XDATA   0350H     0008H     UNIT         ?XD?_BT_SEND_RECORDABLE_DP_DATA?PROTOCOL
            XDATA   0358H     0007H     UNIT         ?XD?_MCU_DP_FAULT_UPDATE?MCU_API
            XDATA   035FH     0006H     UNIT         ?XD?_MCU_DP_RAW_UPDATE?MCU_API
            XDATA   0365H     0006H     UNIT         ?XD?_MCU_DP_STRING_UPDATE?MCU_API
            XDATA   036BH     0004H     UNIT         ?XD?_INT_TO_BYTE?MCU_API
BL51 BANKED LINKER/LOCATER V6.22.2.0                                                  08/31/2021  12:55:22  PAGE 2


            XDATA   036FH     0004H     UNIT         ?XD?PROTOCOL
            XDATA   0373H     0002H     UNIT         ?XD?_MCU_GET_DP_DOWNLOAD_BOOL?MCU_API
            XDATA   0375H     0002H     UNIT         ?XD?_MCU_GET_DP_DOWNLOAD_ENUM?MCU_API
            XDATA   0377H     0001H     UNIT         ?XD?_MCU_DP_BOOL_UPDATE?MCU_API
            XDATA   0378H     0001H     UNIT         ?XD?_MCU_DP_ENUM_UPDATE?MCU_API

            * * * * * * *   C O D E   M E M O R Y   * * * * * * *
            CODE    0000H     0003H     ABSOLUTE     
            CODE    0003H     0008H     UNIT         ?PR?_UART_PUTCHAR?MAIN
            CODE    000BH     0003H     ABSOLUTE     
            CODE    000EH     0014H     UNIT         ?PR?_ISSPACE?ISSPACE
            CODE    0022H     0001H     UNIT         ?PR?BT_FACTOR_RESET_NOTIFY?PROTOCOL
            CODE    0023H     0003H     ABSOLUTE     
            CODE    0026H     05A6H     UNIT         ?PR?_DATA_HANDLE?SYSTEM
            CODE    05CCH     03C8H     UNIT         ?C?LIB_CODE
            CODE    0994H     01DFH     UNIT         ?PR?_MCU_COMMON_UART_DATA_UNPACK?MCU_API
            CODE    0B73H     0167H     UNIT         ?PR?_MY_MEMCPY?MCU_API
            CODE    0CDAH     015DH     UNIT         ?PR?_MCU_DP_FAULT_UPDATE?MCU_API
            CODE    0E37H     0152H     UNIT         ?PR?_MY_ATOLL?MCU_API
            CODE    0F89H     0140H     UNIT         ?PR?TIMER0?MAIN
            CODE    10C9H     0138H     UNIT         ?PR?_BYTE_TO_INT?MCU_API
            CODE    1201H     00CEH     UNIT         ?PR?_UART_RECEIVE_INPUT?MCU_API
            CODE    12CFH     00A5H     UNIT         ?PR?_MCU_DP_VALUE_UPDATE?MCU_API
            CODE    1374H     0098H     UNIT         ?PR?_MY_MEMCMP?MCU_API
            CODE    140CH     008CH     UNIT         ?C_C51STARTUP
            CODE    1498H     0086H     UNIT         ?PR?_DATA_POINT_HANDLE?SYSTEM
            CODE    151EH     0078H     UNIT         ?PR?BT_UART_SERVICE?MCU_API
            CODE    1596H     0075H     UNIT         ?PR?_MY_STRLEN?MCU_API
            CODE    160BH     0074H     UNIT         ?PR?_SET_BT_UART_BUFFER?SYSTEM
            CODE    167FH     0071H     UNIT         ?PR?_HEX_TO_BCD?MCU_API
            CODE    16F0H     0069H     UNIT         ?PR?_MY_MEMSET?MCU_API
            CODE    1759H     0068H     UNIT         ?PR?_BT_UART_WRITE_FRAME?SYSTEM
            CODE    17C1H     0065H     UNIT         ?PR?QUEUE_READ_BYTE?SYSTEM
            CODE    1826H     0060H     UNIT         ?PR?_INT_TO_BYTE?MCU_API
            CODE    1886H     005FH     UNIT         ?PR?_MCU_DP_RAW_UPDATE?MCU_API
            CODE    18E5H     005FH     UNIT         ?PR?_MCU_DP_STRING_UPDATE?MCU_API
            CODE    1944H     0059H     UNIT         ?PR?PRODUCT_INFO_UPDATE?SYSTEM
            CODE    199DH     0058H     UNIT         ?PR?TASK_ADC?MAIN
            CODE    19F5H     0054H     UNIT         ?PR?_BT_UART_WRITE_DATA?SYSTEM
            CODE    1A49H     004AH     UNIT         ?PR?_GET_CHECK_SUM?SYSTEM
            CODE    1A93H     0044H     UNIT         ?C?LDIV
            CODE    1AD7H     0042H     UNIT         ?PR?_MCU_DP_BOOL_UPDATE?MCU_API
            CODE    1B19H     003FH     UNIT         ?PR?USART?MAIN
            CODE    1B58H     003EH     UNIT         ?PR?_DP_DOWNLOAD_FREQUENCY_HANDLE?PROTOCOL
            CODE    1B96H     003DH     UNIT         ?C_INITSEG
            CODE    1BD3H     003CH     UNIT         ?PR?_MCU_DP_ENUM_UPDATE?MCU_API
            CODE    1C0FH     0035H     UNIT         ?PR?GET_QUEUE_TOTAL_DATA?SYSTEM
            CODE    1C44H     002FH     UNIT         ?PR?_GET_DOWMLOAD_DPID_INDEX?SYSTEM
            CODE    1C73H     002CH     UNIT         ?PR?ALL_DATA_UPDATE?PROTOCOL
            CODE    1C9FH     002CH     UNIT         ?PR?BT_SEND_MCU_VER?PROTOCOL
            CODE    1CCBH     002CH     UNIT         ?PR?_SET_BT_UART_BYTE?SYSTEM
            CODE    1CF7H     0025H     UNIT         ?PR?UARTINIT?MAIN
            CODE    1D1CH     0025H     UNIT         ?PR?HEAT_BEAT_CHECK?SYSTEM
            CODE    1D41H     0023H     UNIT         ?PR?BT_PROTOCOL_INIT?MCU_API
            CODE    1D64H     0022H     UNIT         ?CO?SYSTEM
            CODE    1D86H     001FH     UNIT         ?PR?_BT_SEND_ONE_TIME_PASSWORD_TOKEN?PROTOCOL
            CODE    1DA5H     001CH     UNIT         ?PR?ADCINIT?MAIN
BL51 BANKED LINKER/LOCATER V6.22.2.0                                                  08/31/2021  12:55:22  PAGE 3


            CODE    1DC1H     001CH     UNIT         ?PR?MAIN?MAIN
            CODE    1DDDH     001BH     UNIT         ?PR?TIMER0INIT?MAIN
            CODE    1DF8H     001BH     UNIT         ?PR?_DP_DOWNLOAD_HANDLE?PROTOCOL
            CODE    1E13H     0011H     UNIT         ?PR?_BT_SEND_TIME_SYNC_REQ?PROTOCOL
            CODE    1E24H     0011H     UNIT         ?PR?_BT_MODIFY_ADV_INTERVAL_REQ?PROTOCOL
            CODE    1E35H     0011H     UNIT         ?PR?_BT_CLOSE_TIMER_REQ?PROTOCOL
            CODE    1E46H     0011H     UNIT         ?PR?_BT_ENABLE_LOWPOER_REQ?PROTOCOL
            CODE    1E57H     000FH     UNIT         ?PR?_ISDIGIT?ISDIGIT
            CODE    1E66H     000DH     UNIT         ?PR?_MCU_GET_DP_DOWNLOAD_BOOL?MCU_API
            CODE    1E73H     000DH     UNIT         ?PR?_MCU_GET_DP_DOWNLOAD_ENUM?MCU_API
            CODE    1E80H     000CH     UNIT         ?PR?MCU_RESET_BT?MCU_API
            CODE    1E8CH     000CH     UNIT         ?PR?_BT_SEND_RECORDABLE_DP_DATA?PROTOCOL
            CODE    1E98H     000BH     UNIT         ?PR?_MCU_GET_DP_DOWNLOAD_VALUE?MCU_API
            CODE    1EA3H     0009H     UNIT         ?PR?_BT_RF_TEST_RESULT?PROTOCOL
            CODE    1EACH     0009H     UNIT         ?PR?_BT_TIME_SYNC_RESULT?PROTOCOL
            CODE    1EB5H     0008H     UNIT         ?PR?BT_UNBOUND_REQ?PROTOCOL
            CODE    1EBDH     0008H     UNIT         ?PR?BT_RF_TEST_REQ?PROTOCOL
            CODE    1EC5H     0008H     UNIT         ?PR?BT_DISCONNECT_REQ?PROTOCOL
            CODE    1ECDH     0008H     UNIT         ?PR?GET_MCU_BT_MODE?SYSTEM
            CODE    1ED5H     0006H     UNIT         ?PR?MCU_GET_RESET_BT_FLAG?MCU_API
            CODE    1EDBH     0006H     UNIT         ?PR?MCU_GET_BT_WORK_STATE?MCU_API
            CODE    1EE1H     0006H     UNIT         ?PR?_BT_SEND_RECORDABLE_DP_DATA_RESULT?PROTOCOL
            CODE    1EE7H     0006H     UNIT         ?PR?_BT_MODIFY_ADV_INTERVAL_RESULT?PROTOCOL
            CODE    1EEDH     0006H     UNIT         ?PR?_BT_CLOSE_TIMER_RESULT?PROTOCOL
            CODE    1EF3H     0006H     UNIT         ?PR?_BT_ENABLE_LOWPOER_RESULT?PROTOCOL
            CODE    1EF9H     0006H     UNIT         ?PR?_BT_SEND_ONE_TIME_PASSWORD_TOKEN_RESULT?PROTOCOL
            CODE    1EFFH     0006H     UNIT         ?PR?_BT_DISCONNECT_RESULT?PROTOCOL
            CODE    1F05H     0003H     UNIT         ?PR?_UART_TRANSMIT_OUTPUT?PROTOCOL
            CODE    1F08H     0003H     UNIT         ?PR?GET_DOWNLOAD_CMD_TOTAL?PROTOCOL



OVERLAY MAP OF MODULE:   .\Objects\test (MAIN)


SEGMENT                                            XDATA_GROUP
  +--> CALLED SEGMENT                            START    LENGTH
----------------------------------------------------------------
?PR?USART?MAIN                                   -----    -----
  +--> ?PR?_UART_RECEIVE_INPUT?MCU_API

?PR?_UART_RECEIVE_INPUT?MCU_API                  02EDH    0001H

*** NEW ROOT ***************************************************

?C_C51STARTUP                                    -----    -----
  +--> ?PR?MAIN?MAIN
  +--> ?C_INITSEG

?PR?MAIN?MAIN                                    -----    -----
  +--> ?PR?UARTINIT?MAIN
  +--> ?PR?TIMER0INIT?MAIN
  +--> ?PR?BT_PROTOCOL_INIT?MCU_API
  +--> ?PR?ADCINIT?MAIN
  +--> ?PR?BT_UART_SERVICE?MCU_API
  +--> ?PR?TASK_ADC?MAIN

BL51 BANKED LINKER/LOCATER V6.22.2.0                                                  08/31/2021  12:55:22  PAGE 4


?PR?BT_UART_SERVICE?MCU_API                      02EEH    0004H
  +--> ?PR?GET_QUEUE_TOTAL_DATA?SYSTEM
  +--> ?PR?QUEUE_READ_BYTE?SYSTEM
  +--> ?PR?_MCU_COMMON_UART_DATA_UNPACK?MCU_API
  +--> ?PR?_DATA_HANDLE?SYSTEM
  +--> ?PR?_MY_MEMSET?MCU_API

?PR?_MCU_COMMON_UART_DATA_UNPACK?MCU_API         02F2H    0002H
  +--> ?PR?_MY_MEMSET?MCU_API
  +--> ?PR?_MY_MEMCPY?MCU_API

?PR?_MY_MEMSET?MCU_API                           02F4H    0009H

?PR?_MY_MEMCPY?MCU_API                           0326H    0010H

?PR?_DATA_HANDLE?SYSTEM                          02F2H    002CH
  +--> ?CO?SYSTEM
  +--> ?PR?HEAT_BEAT_CHECK?SYSTEM
  +--> ?PR?PRODUCT_INFO_UPDATE?SYSTEM
  +--> ?PR?GET_MCU_BT_MODE?SYSTEM
  +--> ?PR?_DATA_POINT_HANDLE?SYSTEM
  +--> ?PR?ALL_DATA_UPDATE?PROTOCOL
  +--> ?PR?_MY_MEMCMP?MCU_API
  +--> ?PR?_BT_RF_TEST_RESULT?PROTOCOL
  +--> ?PR?_BT_SEND_RECORDABLE_DP_DATA_RESUL...
  +--> ?PR?_MY_MEMCPY?MCU_API
  +--> ?PR?_MY_ATOLL?MCU_API
  +--> ?PR?_BT_TIME_SYNC_RESULT?PROTOCOL
  +--> ?PR?_BT_MODIFY_ADV_INTERVAL_RESULT?PR...
  +--> ?PR?_BT_CLOSE_TIMER_RESULT?PROTOCOL
  +--> ?PR?_BT_ENABLE_LOWPOER_RESULT?PROTOCOL
  +--> ?PR?_BT_SEND_ONE_TIME_PASSWORD_TOKEN_...
  +--> ?PR?_BT_DISCONNECT_RESULT?PROTOCOL
  +--> ?PR?_SET_BT_UART_BUFFER?SYSTEM
  +--> ?PR?_BT_UART_WRITE_FRAME?SYSTEM
  +--> ?PR?BT_FACTOR_RESET_NOTIFY?PROTOCOL

?PR?HEAT_BEAT_CHECK?SYSTEM                       -----    -----
  +--> ?PR?_SET_BT_UART_BYTE?SYSTEM
  +--> ?PR?_BT_UART_WRITE_FRAME?SYSTEM

?PR?_SET_BT_UART_BYTE?SYSTEM                     0335H    0002H

?PR?_BT_UART_WRITE_FRAME?SYSTEM                  0335H    0002H
  +--> ?PR?_GET_CHECK_SUM?SYSTEM
  +--> ?PR?_BT_UART_WRITE_DATA?SYSTEM

?PR?_GET_CHECK_SUM?SYSTEM                        0337H    0006H

?PR?_BT_UART_WRITE_DATA?SYSTEM                   0337H    0005H
  +--> ?PR?_UART_TRANSMIT_OUTPUT?PROTOCOL

?PR?_UART_TRANSMIT_OUTPUT?PROTOCOL               -----    -----
  +--> ?PR?_UART_PUTCHAR?MAIN

?PR?PRODUCT_INFO_UPDATE?SYSTEM                   031EH    0001H
  +--> ?CO?SYSTEM
BL51 BANKED LINKER/LOCATER V6.22.2.0                                                  08/31/2021  12:55:22  PAGE 5


  +--> ?PR?_MY_STRLEN?MCU_API
  +--> ?PR?_SET_BT_UART_BUFFER?SYSTEM
  +--> ?PR?_BT_UART_WRITE_FRAME?SYSTEM

?PR?_MY_STRLEN?MCU_API                           031FH    0007H

?PR?_SET_BT_UART_BUFFER?SYSTEM                   031FH    0007H
  +--> ?PR?_MY_MEMCPY?MCU_API

?PR?GET_MCU_BT_MODE?SYSTEM                       -----    -----
  +--> ?PR?_BT_UART_WRITE_FRAME?SYSTEM

?PR?_DATA_POINT_HANDLE?SYSTEM                    031EH    0007H
  +--> ?PR?_GET_DOWMLOAD_DPID_INDEX?SYSTEM
  +--> ?PR?_DP_DOWNLOAD_HANDLE?PROTOCOL

?PR?_GET_DOWMLOAD_DPID_INDEX?SYSTEM              0325H    0001H
  +--> ?PR?GET_DOWNLOAD_CMD_TOTAL?PROTOCOL

?PR?_DP_DOWNLOAD_HANDLE?PROTOCOL                 0325H    0007H
  +--> ?PR?_DP_DOWNLOAD_FREQUENCY_HANDLE?PRO...

?PR?_DP_DOWNLOAD_FREQUENCY_HANDLE?PRO...         032CH    0004H
  +--> ?PR?_MCU_GET_DP_DOWNLOAD_VALUE?MCU_API
  +--> ?PR?_MCU_DP_VALUE_UPDATE?MCU_API

?PR?_MCU_GET_DP_DOWNLOAD_VALUE?MCU_API           0330H    0002H
  +--> ?PR?_BYTE_TO_INT?MCU_API

?PR?_BYTE_TO_INT?MCU_API                         0332H    0007H

?PR?_MCU_DP_VALUE_UPDATE?MCU_API                 0330H    0005H
  +--> ?PR?_SET_BT_UART_BYTE?SYSTEM
  +--> ?PR?_BT_UART_WRITE_FRAME?SYSTEM

?PR?ALL_DATA_UPDATE?PROTOCOL                     -----    -----
  +--> ?PR?_MCU_DP_VALUE_UPDATE?MCU_API

?PR?_MY_MEMCMP?MCU_API                           031EH    0008H

?PR?_BT_RF_TEST_RESULT?PROTOCOL                  031EH    0002H

?PR?_BT_SEND_RECORDABLE_DP_DATA_RESUL...         031EH    0001H

?PR?_MY_ATOLL?MCU_API                            031EH    000BH
  +--> ?PR?_ISDIGIT?ISDIGIT
  +--> ?PR?_ISSPACE?ISSPACE

?PR?_BT_TIME_SYNC_RESULT?PROTOCOL                031EH    0010H

?PR?_BT_MODIFY_ADV_INTERVAL_RESULT?PR...         031EH    0001H

?PR?_BT_CLOSE_TIMER_RESULT?PROTOCOL              031EH    0001H

?PR?_BT_ENABLE_LOWPOER_RESULT?PROTOCOL           031EH    0001H

?PR?_BT_SEND_ONE_TIME_PASSWORD_TOKEN_...         031EH    0001H
BL51 BANKED LINKER/LOCATER V6.22.2.0                                                  08/31/2021  12:55:22  PAGE 6



?PR?_BT_DISCONNECT_RESULT?PROTOCOL               031EH    0001H

?PR?TASK_ADC?MAIN                                -----    -----
  +--> ?PR?_MCU_DP_VALUE_UPDATE?MCU_API



UNRESOLVED EXTERNAL SYMBOLS:
   MCU_OTA_INIT_DISCONNECT



SYMBOL TABLE OF MODULE:  .\Objects\test (MAIN)

  VALUE           TYPE          NAME
  ----------------------------------

  -------         MODULE        MAIN
  C:0000H         SYMBOL        _ICE_DUMMY_
  D:0080H         PUBLIC        P0
  D:00B2H         PUBLIC        P3M0
  D:0090H         PUBLIC        P1
  D:00B1H         PUBLIC        P3M1
  D:00A0H         PUBLIC        P2
  D:00CAH         PUBLIC        P5M0
  D:00B0H         PUBLIC        P3
  D:00C9H         PUBLIC        P5M1
  D:00C0H         PUBLIC        P4
  D:00C8H         PUBLIC        P5
  B:00A8H.7       PUBLIC        EA
  D:00A2H         PUBLIC        P_SW1
  D:00BAH         PUBLIC        P_SW2
  D:00A8H         PUBLIC        IE
  C:1B19H         PUBLIC        Usart
  D:00BDH         PUBLIC        ADC_RES
  B:00A8H.4       PUBLIC        ES
  D:00B8H         PUBLIC        IP
  D:00DEH         PUBLIC        ADCCFG
  B:0098H.0       PUBLIC        RI
  B:0098H.1       PUBLIC        TI
  X:034BH         PUBLIC        f_task_ad
  D:00D8H         PUBLIC        CCON
  C:1DC1H         PUBLIC        main
  D:00BCH         PUBLIC        ADC_CONTR
  D:0099H         PUBLIC        SBUF
  C:0F89H         PUBLIC        Timer0
  D:0098H         PUBLIC        SCON
  C:1CF7H         PUBLIC        UartInit
  D:0089H         PUBLIC        TMOD
  D:0088H         PUBLIC        TCON
  B:00C8H.4       PUBLIC        P54
  C:0003H         PUBLIC        _Uart_PutChar
  D:008EH         PUBLIC        AUXR
  B:00A8H.1       PUBLIC        ET0
  B:00A8H.3       PUBLIC        ET1
  B:0088H.5       PUBLIC        TF0
BL51 BANKED LINKER/LOCATER V6.22.2.0                                                  08/31/2021  12:55:22  PAGE 7


  C:1DDDH         PUBLIC        Timer0Init
  D:008CH         PUBLIC        TH0
  D:008DH         PUBLIC        TH1
  D:008AH         PUBLIC        TL0
  D:008BH         PUBLIC        TL1
  B:0088H.4       PUBLIC        TR0
  B:0088H.6       PUBLIC        TR1
  C:199DH         PUBLIC        TASK_ADC
  C:1DA5H         PUBLIC        ADCInit
  D:00BEH         PUBLIC        ADC_RESL
  X:034CH         PUBLIC        fre_set
  X:034EH         PUBLIC        voltage
  D:00D0H         PUBLIC        PSW
  -------         PROC          UARTINIT
  C:1CF7H         LINE#         6
  C:1CF7H         LINE#         7
  C:1CF7H         LINE#         8
  C:1CFAH         LINE#         9
  C:1CFDH         LINE#         10
  C:1D00H         LINE#         11
  C:1D03H         LINE#         12
  C:1D06H         LINE#         13
  C:1D09H         LINE#         14
  C:1D0CH         LINE#         15
  C:1D0FH         LINE#         16
  C:1D12H         LINE#         17
  C:1D15H         LINE#         18
  C:1D17H         LINE#         19
  C:1D19H         LINE#         20
  C:1D1BH         LINE#         21
  -------         ENDPROC       UARTINIT
  -------         PROC          TIMER0INIT
  C:1DDDH         LINE#         24
  C:1DDDH         LINE#         25
  C:1DDDH         LINE#         26
  C:1DE0H         LINE#         27
  C:1DE3H         LINE#         29
  C:1DE6H         LINE#         30
  C:1DE9H         LINE#         31
  C:1DECH         LINE#         32
  C:1DEFH         LINE#         33
  C:1DF1H         LINE#         34
  C:1DF3H         LINE#         35
  C:1DF5H         LINE#         36
  C:1DF7H         LINE#         37
  -------         ENDPROC       TIMER0INIT
  -------         PROC          ADCINIT
  C:1DA5H         LINE#         39
  C:1DA5H         LINE#         40
  C:1DA5H         LINE#         41
  C:1DA8H         LINE#         42
  C:1DABH         LINE#         45
  C:1DAEH         LINE#         46
  C:1DB4H         LINE#         47
  C:1DB7H         LINE#         49
  C:1DBAH         LINE#         50
  C:1DBDH         LINE#         51
BL51 BANKED LINKER/LOCATER V6.22.2.0                                                  08/31/2021  12:55:22  PAGE 8


  C:1DC0H         LINE#         54
  -------         ENDPROC       ADCINIT
  -------         PROC          TASK_ADC
  C:199DH         LINE#         58
  C:199DH         LINE#         59
  C:199DH         LINE#         61
  C:19A0H         LINE#         62
  C:19A5H         LINE#         63
  C:19A6H         LINE#         64
  C:19A7H         LINE#         65
  C:19AAH         LINE#         66
  C:19C7H         LINE#         67
  C:19E7H         LINE#         68
  -------         ENDPROC       TASK_ADC
  -------         PROC          MAIN
  C:1DC1H         LINE#         73
  C:1DC1H         LINE#         74
  C:1DC1H         LINE#         75
  C:1DC4H         LINE#         76
  C:1DC7H         LINE#         77
  C:1DCAH         LINE#         78
  C:1DCDH         LINE#         79
  C:1DCDH         LINE#         80
  C:1DCDH         LINE#         81
  C:1DD0H         LINE#         82
  C:1DD6H         LINE#         83
  C:1DD6H         LINE#         84
  C:1DD8H         LINE#         85
  C:1DDBH         LINE#         86
  C:1DDBH         LINE#         87
  -------         ENDPROC       MAIN
  -------         PROC          _UART_PUTCHAR
  D:0007H         SYMBOL        value
  C:0003H         LINE#         91
  C:0003H         LINE#         92
  C:0003H         LINE#         93
  C:0005H         LINE#         94
  C:0008H         LINE#         95
  C:000AH         LINE#         96
  -------         ENDPROC       _UART_PUTCHAR
  -------         PROC          USART
  -------         DO            
  D:0007H         SYMBOL        receiveData
  -------         ENDDO         
  C:1B19H         LINE#         98
  C:1B36H         LINE#         102
  C:1B38H         LINE#         103
  C:1B3AH         LINE#         104
  C:1B3DH         LINE#         105
  -------         ENDPROC       USART
  -------         PROC          TIMER0
  -------         DO            
  X:0347H         SYMBOL        i
  X:0349H         SYMBOL        count
  -------         ENDDO         
  C:0F89H         LINE#         109
  C:0FA6H         LINE#         113
BL51 BANKED LINKER/LOCATER V6.22.2.0                                                  08/31/2021  12:55:22  PAGE 9


  C:0FB6H         LINE#         114
  C:0FB6H         LINE#         115
  C:0FE2H         LINE#         116
  C:1014H         LINE#         117
  C:101BH         LINE#         118
  C:101DH         LINE#         119
  C:102BH         LINE#         120
  C:102DH         LINE#         121
  C:103DH         LINE#         122
  C:103DH         LINE#         123
  C:1040H         LINE#         124
  C:1043H         LINE#         125
  C:1047H         LINE#         126
  C:1047H         LINE#         127
  C:1049H         LINE#         128
  C:104BH         LINE#         130
  C:104BH         LINE#         131
  C:1059H         LINE#         132
  C:1075H         LINE#         133
  C:1075H         LINE#         134
  C:1077H         LINE#         135
  C:107BH         LINE#         136
  C:1089H         LINE#         137
  C:1089H         LINE#         138
  C:1089H         LINE#         139
  C:1089H         LINE#         140
  C:10A7H         LINE#         141
  C:10A7H         LINE#         142
  C:10ABH         LINE#         143
  C:10AEH         LINE#         144
  C:10AEH         LINE#         145
  -------         ENDPROC       TIMER0
  -------         ENDMOD        MAIN

  -------         MODULE        MCU_API
  C:0000H         SYMBOL        _ICE_DUMMY_
  D:0080H         PUBLIC        P0
  X:033FH         SYMBOL        current_uart_rev_state_type
  D:0090H         PUBLIC        P1
  D:00A0H         PUBLIC        P2
  D:00B0H         PUBLIC        P3
  D:00C0H         PUBLIC        P4
  D:00C8H         PUBLIC        P5
  C:1E80H         PUBLIC        mcu_reset_bt
  D:00A8H         PUBLIC        IE
  C:1886H         PUBLIC        _mcu_dp_raw_update
  C:167FH         PUBLIC        _hex_to_bcd
  D:00B8H         PUBLIC        IP
  C:1201H         PUBLIC        _uart_receive_input
  D:00D8H         PUBLIC        CCON
  C:1ED5H         PUBLIC        mcu_get_reset_bt_flag
  C:10C9H         PUBLIC        _byte_to_int
  C:1826H         PUBLIC        _int_to_byte
  D:0098H         PUBLIC        SCON
  X:0340H         SYMBOL        UART_RX_Count
  D:0088H         PUBLIC        TCON
  C:0994H         SYMBOL        _mcu_common_uart_data_unpack
BL51 BANKED LINKER/LOCATER V6.22.2.0                                                  08/31/2021  12:55:22  PAGE 10


  C:1D41H         PUBLIC        bt_protocol_init
  C:1374H         PUBLIC        _my_memcmp
  C:1EDBH         PUBLIC        mcu_get_bt_work_state
  C:151EH         PUBLIC        bt_uart_service
  C:0B73H         PUBLIC        _my_memcpy
  C:1701H         PUBLIC        _my_memset
  X:0342H         SYMBOL        uart_data_len
  C:1E98H         PUBLIC        _mcu_get_dp_download_value
  C:18E5H         PUBLIC        _mcu_dp_string_update
  C:0CDAH         PUBLIC        _mcu_dp_fault_update
  C:1596H         PUBLIC        _my_strlen
  C:12CFH         PUBLIC        _mcu_dp_value_update
  C:0E37H         PUBLIC        _my_atoll
  C:1E66H         PUBLIC        _mcu_get_dp_download_bool
  C:1AD7H         PUBLIC        _mcu_dp_bool_update
  C:1E73H         PUBLIC        _mcu_get_dp_download_enum
  X:0344H         SYMBOL        bt_uart_rx_buf_temp
  D:00D0H         PUBLIC        PSW
  C:1BD3H         PUBLIC        _mcu_dp_enum_update
  -------         PROC          _HEX_TO_BCD
  D:0007H         SYMBOL        Value_H
  D:0005H         SYMBOL        Value_L
  -------         DO            
  D:0007H         SYMBOL        bcd_value
  -------         ENDDO         
  C:167FH         LINE#         52
  C:167FH         LINE#         53
  C:167FH         LINE#         56
  C:168BH         LINE#         57
  C:1691H         LINE#         58
  C:169DH         LINE#         59
  C:16A3H         LINE#         60
  C:16AFH         LINE#         61
  C:16B3H         LINE#         63
  C:16B6H         LINE#         65
  C:16BAH         LINE#         66
  C:16C6H         LINE#         67
  C:16CCH         LINE#         68
  C:16D8H         LINE#         69
  C:16DAH         LINE#         70
  C:16E6H         LINE#         71
  C:16EAH         LINE#         73
  C:16EFH         LINE#         75
  C:16EFH         LINE#         76
  -------         ENDPROC       _HEX_TO_BCD
  -------         PROC          _MY_STRLEN
  X:031FH         SYMBOL        str
  -------         DO            
  X:0322H         SYMBOL        len
  -------         ENDDO         
  C:1596H         LINE#         86
  C:15A1H         LINE#         87
  C:15A1H         LINE#         88
  C:15A9H         LINE#         89
  C:15B7H         LINE#         90
  C:15B7H         LINE#         91
  C:15BCH         LINE#         92
BL51 BANKED LINKER/LOCATER V6.22.2.0                                                  08/31/2021  12:55:22  PAGE 11


  C:15BCH         LINE#         94
  C:15DBH         LINE#         95
  C:15DBH         LINE#         96
  C:15FAH         LINE#         97
  C:15FCH         LINE#         99
  C:160AH         LINE#         100
  -------         ENDPROC       _MY_STRLEN
  C:16F0H         SYMBOL        L?0122
  C:16FDH         SYMBOL        L?0123
  -------         PROC          L?0121
  -------         ENDPROC       L?0121
  C:16F0H         SYMBOL        L?0122
  C:16FDH         SYMBOL        L?0123
  -------         PROC          _MY_MEMSET
  X:02F4H         SYMBOL        src
  D:0005H         SYMBOL        ch
  X:02F8H         SYMBOL        count
  -------         DO            
  X:02FAH         SYMBOL        tmp
  -------         ENDDO         
  C:1701H         LINE#         110
  C:170CH         LINE#         111
  C:170CH         LINE#         112
  C:1717H         LINE#         114
  C:1725H         LINE#         115
  C:1725H         LINE#         116
  C:1729H         LINE#         117
  C:1729H         LINE#         119
  C:1737H         LINE#         120
  C:1737H         LINE#         121
  C:174BH         LINE#         122
  C:174DH         LINE#         124
  C:1758H         LINE#         125
  -------         ENDPROC       _MY_MEMSET
  -------         PROC          _MY_MEMCPY
  X:0326H         SYMBOL        dest
  X:0329H         SYMBOL        src
  X:032CH         SYMBOL        count
  -------         DO            
  X:032EH         SYMBOL        pdest
  X:0331H         SYMBOL        psrc
  X:0334H         SYMBOL        i
  -------         ENDDO         
  C:0B73H         LINE#         135
  C:0B7EH         LINE#         136
  C:0B7EH         LINE#         137
  C:0B89H         LINE#         138
  C:0B9EH         LINE#         141
  C:0BB8H         LINE#         142
  C:0BB8H         LINE#         143
  C:0BBFH         LINE#         144
  C:0BBFH         LINE#         146
  C:0C1BH         LINE#         147
  C:0C1BH         LINE#         148
  C:0C3BH         LINE#         149
  C:0C3BH         LINE#         150
  C:0C61H         LINE#         151
BL51 BANKED LINKER/LOCATER V6.22.2.0                                                  08/31/2021  12:55:22  PAGE 12


  C:0C71H         LINE#         152
  C:0C71H         LINE#         154
  C:0C71H         LINE#         155
  C:0C90H         LINE#         156
  C:0C90H         LINE#         157
  C:0CBEH         LINE#         158
  C:0CCEH         LINE#         159
  C:0CCEH         LINE#         161
  C:0CD9H         LINE#         162
  -------         ENDPROC       _MY_MEMCPY
  -------         PROC          _MY_MEMCMP
  X:031EH         SYMBOL        buffer1
  X:0321H         SYMBOL        buffer2
  X:0324H         SYMBOL        count
  C:1374H         LINE#         171
  C:137FH         LINE#         172
  C:137FH         LINE#         173
  C:1389H         LINE#         174
  C:138CH         LINE#         175
  C:13BAH         LINE#         176
  C:13BAH         LINE#         177
  C:13CCH         LINE#         178
  C:13E5H         LINE#         179
  C:13E7H         LINE#         180
  C:140BH         LINE#         181
  -------         ENDPROC       _MY_MEMCMP
  -------         PROC          _MY_ATOLL
  D:0001H         SYMBOL        p
  -------         DO            
  X:031EH         SYMBOL        n
  X:0322H         SYMBOL        c
  X:0324H         SYMBOL        neg
  X:0326H         SYMBOL        up
  -------         ENDDO         
  C:0E37H         LINE#         190
  C:0E37H         LINE#         191
  C:0E37H         LINE#         193
  C:0E3EH         LINE#         194
  C:0E47H         LINE#         196
  C:0E5AH         LINE#         197
  C:0E65H         LINE#         198
  C:0E83H         LINE#         199
  C:0E97H         LINE#         200
  C:0E97H         LINE#         201
  C:0EA5H         LINE#         203
  C:0EA5H         LINE#         204
  C:0EC1H         LINE#         205
  C:0EC1H         LINE#         206
  C:0ECCH         LINE#         207
  C:0ED2H         LINE#         208
  C:0ED2H         LINE#         210
  C:0F0BH         LINE#         211
  C:0F28H         LINE#         212
  C:0F5BH         LINE#         213
  C:0F5DH         LINE#         215
  C:0F88H         LINE#         216
  -------         ENDPROC       _MY_ATOLL
BL51 BANKED LINKER/LOCATER V6.22.2.0                                                  08/31/2021  12:55:22  PAGE 13


  -------         PROC          _INT_TO_BYTE
  X:036BH         SYMBOL        number
  D:0001H         SYMBOL        value
  C:1826H         LINE#         227
  C:182CH         LINE#         228
  C:182CH         LINE#         229
  C:1843H         LINE#         230
  C:185DH         LINE#         231
  C:1877H         LINE#         232
  -------         ENDPROC       _INT_TO_BYTE
  -------         PROC          _BYTE_TO_INT
  X:0332H         SYMBOL        value
  -------         DO            
  X:0335H         SYMBOL        nubmer
  -------         ENDDO         
  C:10C9H         LINE#         241
  C:10D4H         LINE#         242
  C:10D4H         LINE#         243
  C:10DCH         LINE#         245
  C:10EAH         LINE#         246
  C:1103H         LINE#         247
  C:1142H         LINE#         248
  C:115BH         LINE#         249
  C:119AH         LINE#         250
  C:11B3H         LINE#         251
  C:11F2H         LINE#         253
  C:1200H         LINE#         254
  -------         ENDPROC       _BYTE_TO_INT
  -------         PROC          MCU_GET_RESET_BT_FLAG
  C:1ED5H         LINE#         264
  C:1ED5H         LINE#         265
  C:1ED5H         LINE#         266
  C:1EDAH         LINE#         267
  -------         ENDPROC       MCU_GET_RESET_BT_FLAG
  -------         PROC          MCU_RESET_BT
  C:1E80H         LINE#         276
  C:1E80H         LINE#         277
  C:1E80H         LINE#         278
  C:1E85H         LINE#         280
  -------         ENDPROC       MCU_RESET_BT
  -------         PROC          MCU_GET_BT_WORK_STATE
  C:1EDBH         LINE#         292
  C:1EDBH         LINE#         293
  C:1EDBH         LINE#         294
  C:1EE0H         LINE#         295
  -------         ENDPROC       MCU_GET_BT_WORK_STATE
  -------         PROC          _MCU_DP_RAW_UPDATE
  X:035FH         SYMBOL        dpid
  X:0360H         SYMBOL        value
  X:0363H         SYMBOL        len
  -------         DO            
  D:0006H         SYMBOL        length
  -------         ENDDO         
  C:1886H         LINE#         306
  C:1894H         LINE#         307
  C:1894H         LINE#         308
  C:1897H         LINE#         310
BL51 BANKED LINKER/LOCATER V6.22.2.0                                                  08/31/2021  12:55:22  PAGE 14


  C:189FH         LINE#         311
  C:18A1H         LINE#         313
  C:18A9H         LINE#         314
  C:18AEH         LINE#         316
  C:18B6H         LINE#         317
  C:18BEH         LINE#         319
  C:18D9H         LINE#         321
  C:18E2H         LINE#         323
  C:18E4H         LINE#         324
  -------         ENDPROC       _MCU_DP_RAW_UPDATE
  -------         PROC          _MCU_DP_BOOL_UPDATE
  D:0004H         SYMBOL        dpid
  X:0377H         SYMBOL        value
  -------         DO            
  D:0006H         SYMBOL        length
  -------         ENDDO         
  C:1AD7H         LINE#         332
  C:1ADEH         LINE#         333
  C:1ADEH         LINE#         334
  C:1AE1H         LINE#         336
  C:1AE9H         LINE#         337
  C:1AEBH         LINE#         339
  C:1AF0H         LINE#         340
  C:1AF5H         LINE#         342
  C:1AFAH         LINE#         343
  C:1AFFH         LINE#         345
  C:1B05H         LINE#         346
  C:1B05H         LINE#         347
  C:1B06H         LINE#         348
  C:1B08H         LINE#         350
  C:1B08H         LINE#         351
  C:1B0DH         LINE#         352
  C:1B0DH         LINE#         354
  C:1B16H         LINE#         356
  C:1B18H         LINE#         357
  -------         ENDPROC       _MCU_DP_BOOL_UPDATE
  -------         PROC          _MCU_DP_VALUE_UPDATE
  D:0005H         SYMBOL        dpid
  X:0331H         SYMBOL        value
  -------         DO            
  D:0006H         SYMBOL        length
  -------         ENDDO         
  C:12CFH         LINE#         365
  C:12D1H         LINE#         366
  C:12D1H         LINE#         367
  C:12D4H         LINE#         369
  C:12DCH         LINE#         370
  C:12DEH         LINE#         372
  C:12E1H         LINE#         373
  C:12E6H         LINE#         375
  C:12EBH         LINE#         376
  C:12F0H         LINE#         378
  C:1310H         LINE#         379
  C:1330H         LINE#         380
  C:1350H         LINE#         381
  C:1368H         LINE#         383
  C:1371H         LINE#         385
BL51 BANKED LINKER/LOCATER V6.22.2.0                                                  08/31/2021  12:55:22  PAGE 15


  C:1373H         LINE#         386
  -------         ENDPROC       _MCU_DP_VALUE_UPDATE
  -------         PROC          _MCU_DP_STRING_UPDATE
  X:0365H         SYMBOL        dpid
  X:0366H         SYMBOL        value
  X:0369H         SYMBOL        len
  -------         DO            
  D:0006H         SYMBOL        length
  -------         ENDDO         
  C:18E5H         LINE#         395
  C:18F3H         LINE#         396
  C:18F3H         LINE#         397
  C:18F6H         LINE#         399
  C:18FEH         LINE#         400
  C:1900H         LINE#         402
  C:1908H         LINE#         403
  C:190DH         LINE#         405
  C:1915H         LINE#         406
  C:191DH         LINE#         408
  C:1938H         LINE#         410
  C:1941H         LINE#         412
  C:1943H         LINE#         413
  -------         ENDPROC       _MCU_DP_STRING_UPDATE
  -------         PROC          _MCU_DP_ENUM_UPDATE
  D:0004H         SYMBOL        dpid
  X:0378H         SYMBOL        value
  -------         DO            
  D:0006H         SYMBOL        length
  -------         ENDDO         
  C:1BD3H         LINE#         421
  C:1BDAH         LINE#         422
  C:1BDAH         LINE#         423
  C:1BDDH         LINE#         425
  C:1BE5H         LINE#         426
  C:1BE7H         LINE#         428
  C:1BECH         LINE#         429
  C:1BF1H         LINE#         431
  C:1BF6H         LINE#         432
  C:1BFBH         LINE#         434
  C:1C03H         LINE#         436
  C:1C0CH         LINE#         438
  C:1C0EH         LINE#         439
  -------         ENDPROC       _MCU_DP_ENUM_UPDATE
  -------         PROC          _MCU_DP_FAULT_UPDATE
  D:0005H         SYMBOL        dpid
  X:0359H         SYMBOL        value
  -------         DO            
  X:035DH         SYMBOL        length
  -------         ENDDO         
  C:0CDAH         LINE#         447
  C:0CDCH         LINE#         448
  C:0CDCH         LINE#         449
  C:0CE3H         LINE#         451
  C:0CEBH         LINE#         452
  C:0CEEH         LINE#         454
  C:0D01H         LINE#         455
  C:0D0EH         LINE#         457
BL51 BANKED LINKER/LOCATER V6.22.2.0                                                  08/31/2021  12:55:22  PAGE 16


  C:0D1BH         LINE#         459
  C:0D36H         LINE#         460
  C:0D36H         LINE#         461
  C:0D4BH         LINE#         462
  C:0D53H         LINE#         463
  C:0D56H         LINE#         464
  C:0D74H         LINE#         465
  C:0D74H         LINE#         466
  C:0D7BH         LINE#         467
  C:0D7BH         LINE#         468
  C:0D7BH         LINE#         469
  C:0D7DH         LINE#         471
  C:0D7DH         LINE#         472
  C:0D8FH         LINE#         473
  C:0DB7H         LINE#         474
  C:0DDFH         LINE#         475
  C:0E07H         LINE#         476
  C:0E27H         LINE#         477
  C:0E27H         LINE#         479
  C:0E34H         LINE#         481
  C:0E36H         LINE#         482
  -------         ENDPROC       _MCU_DP_FAULT_UPDATE
  -------         PROC          _MCU_GET_DP_DOWNLOAD_BOOL
  D:0001H         SYMBOL        value
  X:0373H         SYMBOL        len
  C:1E66H         LINE#         490
  C:1E6EH         LINE#         491
  C:1E6EH         LINE#         492
  C:1E72H         LINE#         493
  -------         ENDPROC       _MCU_GET_DP_DOWNLOAD_BOOL
  -------         PROC          _MCU_GET_DP_DOWNLOAD_ENUM
  D:0001H         SYMBOL        value
  X:0375H         SYMBOL        len
  C:1E73H         LINE#         502
  C:1E7BH         LINE#         503
  C:1E7BH         LINE#         504
  C:1E7FH         LINE#         505
  -------         ENDPROC       _MCU_GET_DP_DOWNLOAD_ENUM
  -------         PROC          _MCU_GET_DP_DOWNLOAD_VALUE
  D:0001H         SYMBOL        value
  X:0330H         SYMBOL        len
  C:1E98H         LINE#         514
  C:1EA0H         LINE#         515
  C:1EA0H         LINE#         516
  -------         ENDPROC       _MCU_GET_DP_DOWNLOAD_VALUE
  -------         PROC          _UART_RECEIVE_INPUT
  X:02EDH         SYMBOL        value
  C:1201H         LINE#         525
  C:1206H         LINE#         526
  C:1206H         LINE#         527
  C:1252H         LINE#         528
  C:1252H         LINE#         530
  C:1252H         LINE#         531
  C:1294H         LINE#         532
  C:1294H         LINE#         534
  C:1294H         LINE#         536
  C:1294H         LINE#         538
BL51 BANKED LINKER/LOCATER V6.22.2.0                                                  08/31/2021  12:55:22  PAGE 17


  C:12A7H         LINE#         539
  C:12A7H         LINE#         540
  C:12B5H         LINE#         541
  C:12B5H         LINE#         543
  C:12CEH         LINE#         544
  C:12CEH         LINE#         545
  -------         ENDPROC       _UART_RECEIVE_INPUT
  -------         PROC          _MCU_COMMON_UART_DATA_UNPACK
  X:02F2H         SYMBOL        dataa
  -------         DO            
  X:02F3H         SYMBOL        ret
  -------         ENDDO         
  C:0994H         LINE#         572
  C:0999H         LINE#         573
  C:0999H         LINE#         574
  C:099CH         LINE#         576
  C:09A4H         LINE#         577
  C:09ACH         LINE#         578
  C:09AFH         LINE#         580
  C:09C1H         LINE#         581
  C:09C1H         LINE#         582
  C:09D0H         LINE#         583
  C:09EEH         LINE#         584
  C:09F1H         LINE#         585
  C:09FAH         LINE#         586
  C:0A00H         LINE#         587
  C:0A07H         LINE#         588
  C:0A0AH         LINE#         589
  C:0A0AH         LINE#         590
  C:0A2DH         LINE#         591
  C:0A2DH         LINE#         592
  C:0A2DH         LINE#         593
  C:0A2DH         LINE#         594
  C:0A2DH         LINE#         595
  C:0A4AH         LINE#         596
  C:0A50H         LINE#         597
  C:0A53H         LINE#         598
  C:0A53H         LINE#         599
  C:0A70H         LINE#         600
  C:0A76H         LINE#         601
  C:0A79H         LINE#         602
  C:0A79H         LINE#         603
  C:0A96H         LINE#         604
  C:0AC4H         LINE#         605
  C:0AD4H         LINE#         606
  C:0AD4H         LINE#         607
  C:0AD4H         LINE#         608
  C:0AD4H         LINE#         609
  C:0AD4H         LINE#         610
  C:0AD4H         LINE#         611
  C:0AD4H         LINE#         612
  C:0AD6H         LINE#         613
  C:0AE2H         LINE#         614
  C:0AE2H         LINE#         615
  C:0AE5H         LINE#         616
  C:0AE8H         LINE#         622
  C:0AE8H         LINE#         623
BL51 BANKED LINKER/LOCATER V6.22.2.0                                                  08/31/2021  12:55:22  PAGE 18


  C:0B05H         LINE#         624
  C:0B13H         LINE#         625
  C:0B1AH         LINE#         626
  C:0B1AH         LINE#         627
  C:0B20H         LINE#         628
  C:0B20H         LINE#         629
  C:0B22H         LINE#         630
  C:0B22H         LINE#         631
  C:0B3FH         LINE#         632
  C:0B45H         LINE#         633
  C:0B47H         LINE#         634
  C:0B47H         LINE#         635
  C:0B4AH         LINE#         636
  C:0B5CH         LINE#         637
  C:0B63H         LINE#         638
  C:0B67H         LINE#         639
  C:0B6DH         LINE#         640
  C:0B6DH         LINE#         641
  C:0B6DH         LINE#         643
  C:0B72H         LINE#         645
  -------         ENDPROC       _MCU_COMMON_UART_DATA_UNPACK
  -------         PROC          BT_UART_SERVICE
  -------         DO            
  X:033DH         SYMBOL        rx_in
  X:02EEH         SYMBOL        offset
  X:02F0H         SYMBOL        rx_value_len
  -------         ENDDO         
  C:151EH         LINE#         654
  C:151EH         LINE#         655
  C:151EH         LINE#         657
  C:1525H         LINE#         658
  C:1529H         LINE#         660
  C:1545H         LINE#         661
  C:1545H         LINE#         662
  C:154EH         LINE#         663
  C:154EH         LINE#         664
  C:1554H         LINE#         665
  C:156FH         LINE#         666
  C:1572H         LINE#         667
  C:1584H         LINE#         668
  C:158BH         LINE#         669
  C:158FH         LINE#         670
  C:1595H         LINE#         671
  C:1595H         LINE#         672
  C:1595H         LINE#         674
  -------         ENDPROC       BT_UART_SERVICE
  -------         PROC          BT_PROTOCOL_INIT
  C:1D41H         LINE#         682
  C:1D41H         LINE#         683
  C:1D41H         LINE#         684
  C:1D4FH         LINE#         685
  C:1D5DH         LINE#         688
  C:1D63H         LINE#         692
  -------         ENDPROC       BT_PROTOCOL_INIT
  -------         ENDMOD        MCU_API

  -------         MODULE        PROTOCOL
BL51 BANKED LINKER/LOCATER V6.22.2.0                                                  08/31/2021  12:55:22  PAGE 19


  C:0000H         SYMBOL        _ICE_DUMMY_
  D:0080H         PUBLIC        P0
  C:1E35H         PUBLIC        _bt_close_timer_req
  D:0090H         PUBLIC        P1
  D:00A0H         PUBLIC        P2
  D:00B0H         PUBLIC        P3
  D:00C0H         PUBLIC        P4
  D:00C8H         PUBLIC        P5
  C:1EACH         PUBLIC        _bt_time_sync_result
  D:00A8H         PUBLIC        IE
  C:1E8CH         PUBLIC        _bt_send_recordable_dp_data
  C:1EC5H         PUBLIC        bt_disconnect_req
  C:1EF3H         PUBLIC        _bt_enable_lowpoer_result
  C:1EE1H         PUBLIC        _bt_send_recordable_dp_data_result
  D:00B8H         PUBLIC        IP
  C:1B58H         SYMBOL        _dp_download_frequency_handle
  C:1F08H         PUBLIC        get_download_cmd_total
  C:1C73H         PUBLIC        all_data_update
  D:00D8H         PUBLIC        CCON
  C:1F05H         PUBLIC        _uart_transmit_output
  C:1EE7H         PUBLIC        _bt_modify_adv_interval_result
  D:0098H         PUBLIC        SCON
  D:0088H         PUBLIC        TCON
  C:1EA3H         PUBLIC        _bt_rf_test_result
  C:1C9FH         PUBLIC        bt_send_mcu_ver
  C:1E46H         PUBLIC        _bt_enable_lowpoer_req
  C:0022H         PUBLIC        bt_factor_reset_notify
  C:1E13H         PUBLIC        _bt_send_time_sync_req
  C:1E24H         PUBLIC        _bt_modify_adv_interval_req
  C:1EEDH         PUBLIC        _bt_close_timer_result
  C:1EBDH         PUBLIC        bt_rf_test_req
  C:1EB5H         PUBLIC        bt_unbound_req
  C:1DF8H         PUBLIC        _dp_download_handle
  C:1EFFH         PUBLIC        _bt_disconnect_result
  X:036FH         PUBLIC        download_cmd
  C:1D86H         PUBLIC        _bt_send_one_time_password_token
  D:00D0H         PUBLIC        PSW
  C:1EF9H         PUBLIC        _bt_send_one_time_password_token_result
  -------         PROC          _UART_TRANSMIT_OUTPUT
  D:0007H         SYMBOL        value
  C:1F05H         LINE#         98
  C:1F05H         LINE#         99
  C:1F05H         LINE#         102
  -------         ENDPROC       _UART_TRANSMIT_OUTPUT
  -------         PROC          ALL_DATA_UPDATE
  C:1C73H         LINE#         130
  C:1C73H         LINE#         131
  C:1C73H         LINE#         134
  C:1C89H         LINE#         135
  -------         ENDPROC       ALL_DATA_UPDATE
  -------         PROC          _DP_DOWNLOAD_FREQUENCY_HANDLE
  D:0001H         SYMBOL        value
  D:0004H         SYMBOL        length
  -------         DO            
  D:0007H         SYMBOL        ret
  X:032CH         SYMBOL        frequency
  -------         ENDDO         
BL51 BANKED LINKER/LOCATER V6.22.2.0                                                  08/31/2021  12:55:22  PAGE 20


  C:1B58H         LINE#         156
  C:1B58H         LINE#         157
  C:1B58H         LINE#         162
  C:1B61H         LINE#         167
  C:1B72H         LINE#         169
  C:1B8BH         LINE#         170
  C:1B90H         LINE#         171
  C:1B93H         LINE#         173
  C:1B95H         LINE#         174
  -------         ENDPROC       _DP_DOWNLOAD_FREQUENCY_HANDLE
  -------         PROC          _DP_DOWNLOAD_HANDLE
  D:0007H         SYMBOL        dpid
  D:0001H         SYMBOL        value
  X:0329H         SYMBOL        length
  -------         DO            
  X:032BH         SYMBOL        ret
  -------         ENDDO         
  C:1DF8H         LINE#         196
  C:1DF8H         LINE#         197
  C:1DF8H         LINE#         204
  C:1DFDH         LINE#         205
  C:1DFDH         LINE#         206
  C:1DFDH         LINE#         208
  C:1E0DH         LINE#         209
  C:1E0DH         LINE#         212
  C:1E0DH         LINE#         213
  C:1E0DH         LINE#         214
  C:1E0DH         LINE#         215
  C:1E12H         LINE#         216
  -------         ENDPROC       _DP_DOWNLOAD_HANDLE
  -------         PROC          GET_DOWNLOAD_CMD_TOTAL
  C:1F08H         LINE#         224
  C:1F08H         LINE#         225
  C:1F08H         LINE#         226
  C:1F0AH         LINE#         227
  -------         ENDPROC       GET_DOWNLOAD_CMD_TOTAL
  -------         PROC          BT_UNBOUND_REQ
  C:1EB5H         LINE#         238
  C:1EB5H         LINE#         239
  C:1EB5H         LINE#         240
  -------         ENDPROC       BT_UNBOUND_REQ
  -------         PROC          BT_RF_TEST_REQ
  C:1EBDH         LINE#         252
  C:1EBDH         LINE#         253
  C:1EBDH         LINE#         254
  -------         ENDPROC       BT_RF_TEST_REQ
  -------         PROC          _BT_RF_TEST_RESULT
  X:031EH         SYMBOL        result
  X:031FH         SYMBOL        rssi
  C:1EA3H         LINE#         264
  C:1EABH         LINE#         265
  C:1EABH         LINE#         267
  C:1EABH         LINE#         268
  C:1EABH         LINE#         270
  C:1EABH         LINE#         272
  C:1EABH         LINE#         275
  C:1EABH         LINE#         277
BL51 BANKED LINKER/LOCATER V6.22.2.0                                                  08/31/2021  12:55:22  PAGE 21


  -------         ENDPROC       _BT_RF_TEST_RESULT
  -------         PROC          _BT_SEND_RECORDABLE_DP_DATA
  X:0350H         SYMBOL        snedType
  X:0351H         SYMBOL        dpid
  X:0352H         SYMBOL        dpType
  X:0353H         SYMBOL        value
  X:0356H         SYMBOL        len
  C:1E8CH         LINE#         293
  C:1E97H         LINE#         294
  C:1E97H         LINE#         296
  C:1E97H         LINE#         297
  C:1E97H         LINE#         299
  C:1E97H         LINE#         300
  C:1E97H         LINE#         301
  C:1E97H         LINE#         303
  C:1E97H         LINE#         304
  C:1E97H         LINE#         305
  C:1E97H         LINE#         307
  C:1E97H         LINE#         308
  -------         ENDPROC       _BT_SEND_RECORDABLE_DP_DATA
  -------         PROC          _BT_SEND_RECORDABLE_DP_DATA_RESULT
  X:031EH         SYMBOL        result
  C:1EE1H         LINE#         316
  C:1EE6H         LINE#         317
  C:1EE6H         LINE#         319
  -------         ENDPROC       _BT_SEND_RECORDABLE_DP_DATA_RESULT
  -------         PROC          _BT_SEND_TIME_SYNC_REQ
  D:0005H         SYMBOL        sync_time_type
  -------         DO            
  D:0006H         SYMBOL        length
  -------         ENDDO         
  C:1E13H         LINE#         333
  C:1E15H         LINE#         334
  C:1E15H         LINE#         335
  C:1E18H         LINE#         337
  C:1E1BH         LINE#         339
  -------         ENDPROC       _BT_SEND_TIME_SYNC_REQ
  -------         PROC          _BT_TIME_SYNC_RESULT
  X:031EH         SYMBOL        result
  X:031FH         SYMBOL        sync_time_type
  X:0320H         SYMBOL        bt_time
  X:0328H         SYMBOL        time_zone_100
  X:032AH         SYMBOL        time_stamp_ms
  C:1EACH         LINE#         352
  C:1EB4H         LINE#         353
  C:1EB4H         LINE#         355
  C:1EB4H         LINE#         356
  C:1EB4H         LINE#         358
  C:1EB4H         LINE#         359
  C:1EB4H         LINE#         362
  C:1EB4H         LINE#         363
  C:1EB4H         LINE#         364
  C:1EB4H         LINE#         367
  C:1EB4H         LINE#         368
  C:1EB4H         LINE#         370
  C:1EB4H         LINE#         372
  C:1EB4H         LINE#         373
BL51 BANKED LINKER/LOCATER V6.22.2.0                                                  08/31/2021  12:55:22  PAGE 22


  -------         ENDPROC       _BT_TIME_SYNC_RESULT
  -------         PROC          _BT_MODIFY_ADV_INTERVAL_REQ
  D:0005H         SYMBOL        value
  -------         DO            
  D:0006H         SYMBOL        length
  -------         ENDDO         
  C:1E24H         LINE#         385
  C:1E26H         LINE#         386
  C:1E26H         LINE#         387
  C:1E29H         LINE#         389
  C:1E2CH         LINE#         391
  -------         ENDPROC       _BT_MODIFY_ADV_INTERVAL_REQ
  -------         PROC          _BT_MODIFY_ADV_INTERVAL_RESULT
  X:031EH         SYMBOL        result
  C:1EE7H         LINE#         401
  C:1EECH         LINE#         402
  C:1EECH         LINE#         404
  C:1EECH         LINE#         405
  C:1EECH         LINE#         408
  C:1EECH         LINE#         410
  C:1EECH         LINE#         412
  C:1EECH         LINE#         413
  -------         ENDPROC       _BT_MODIFY_ADV_INTERVAL_RESULT
  -------         PROC          _BT_CLOSE_TIMER_REQ
  D:0005H         SYMBOL        value
  -------         DO            
  D:0006H         SYMBOL        length
  -------         ENDDO         
  C:1E35H         LINE#         424
  C:1E37H         LINE#         425
  C:1E37H         LINE#         426
  C:1E3AH         LINE#         428
  C:1E3DH         LINE#         430
  -------         ENDPROC       _BT_CLOSE_TIMER_REQ
  -------         PROC          _BT_CLOSE_TIMER_RESULT
  X:031EH         SYMBOL        result
  C:1EEDH         LINE#         440
  C:1EF2H         LINE#         441
  C:1EF2H         LINE#         443
  C:1EF2H         LINE#         444
  C:1EF2H         LINE#         447
  C:1EF2H         LINE#         449
  C:1EF2H         LINE#         451
  C:1EF2H         LINE#         452
  -------         ENDPROC       _BT_CLOSE_TIMER_RESULT
  -------         PROC          _BT_ENABLE_LOWPOER_REQ
  D:0005H         SYMBOL        value
  -------         DO            
  D:0006H         SYMBOL        length
  -------         ENDDO         
  C:1E46H         LINE#         462
  C:1E48H         LINE#         463
  C:1E48H         LINE#         464
  C:1E4BH         LINE#         466
  C:1E4EH         LINE#         468
  -------         ENDPROC       _BT_ENABLE_LOWPOER_REQ
  -------         PROC          _BT_ENABLE_LOWPOER_RESULT
BL51 BANKED LINKER/LOCATER V6.22.2.0                                                  08/31/2021  12:55:22  PAGE 23


  X:031EH         SYMBOL        result
  C:1EF3H         LINE#         479
  C:1EF8H         LINE#         480
  C:1EF8H         LINE#         482
  C:1EF8H         LINE#         483
  C:1EF8H         LINE#         486
  C:1EF8H         LINE#         488
  C:1EF8H         LINE#         490
  C:1EF8H         LINE#         491
  -------         ENDPROC       _BT_ENABLE_LOWPOER_RESULT
  -------         PROC          _BT_SEND_ONE_TIME_PASSWORD_TOKEN
  D:0001H         SYMBOL        value
  D:0005H         SYMBOL        len
  -------         DO            
  D:0006H         SYMBOL        length
  -------         ENDDO         
  C:1D86H         LINE#         502
  C:1D86H         LINE#         503
  C:1D86H         LINE#         504
  C:1D89H         LINE#         505
  C:1D8FH         LINE#         507
  C:1D9BH         LINE#         509
  C:1DA4H         LINE#         510
  -------         ENDPROC       _BT_SEND_ONE_TIME_PASSWORD_TOKEN
  -------         PROC          _BT_SEND_ONE_TIME_PASSWORD_TOKEN_RESULT
  X:031EH         SYMBOL        result
  C:1EF9H         LINE#         518
  C:1EFEH         LINE#         519
  C:1EFEH         LINE#         521
  C:1EFEH         LINE#         522
  C:1EFEH         LINE#         525
  C:1EFEH         LINE#         527
  C:1EFEH         LINE#         529
  C:1EFEH         LINE#         530
  -------         ENDPROC       _BT_SEND_ONE_TIME_PASSWORD_TOKEN_RESULT
  -------         PROC          BT_DISCONNECT_REQ
  C:1EC5H         LINE#         541
  C:1EC5H         LINE#         542
  C:1EC5H         LINE#         543
  -------         ENDPROC       BT_DISCONNECT_REQ
  -------         PROC          _BT_DISCONNECT_RESULT
  X:031EH         SYMBOL        result
  C:1EFFH         LINE#         553
  C:1F04H         LINE#         554
  C:1F04H         LINE#         556
  C:1F04H         LINE#         557
  C:1F04H         LINE#         560
  C:1F04H         LINE#         562
  C:1F04H         LINE#         564
  C:1F04H         LINE#         565
  -------         ENDPROC       _BT_DISCONNECT_RESULT
  -------         PROC          BT_SEND_MCU_VER
  -------         DO            
  D:0006H         SYMBOL        length
  -------         ENDDO         
  C:1C9FH         LINE#         576
  C:1C9FH         LINE#         577
BL51 BANKED LINKER/LOCATER V6.22.2.0                                                  08/31/2021  12:55:22  PAGE 24


  C:1C9FH         LINE#         578
  C:1CA2H         LINE#         579
  C:1CB0H         LINE#         580
  C:1CC2H         LINE#         581
  -------         ENDPROC       BT_SEND_MCU_VER
  -------         PROC          BT_FACTOR_RESET_NOTIFY
  C:0022H         LINE#         592
  C:0022H         LINE#         593
  C:0022H         LINE#         595
  -------         ENDPROC       BT_FACTOR_RESET_NOTIFY
  -------         ENDMOD        PROTOCOL

  -------         MODULE        SYSTEM
  C:0000H         SYMBOL        _ICE_DUMMY_
  C:1C44H         SYMBOL        _get_dowmload_dpid_index
  X:0006H         PUBLIC        bt_queue_buf
  D:0080H         PUBLIC        P0
  D:0090H         PUBLIC        P1
  C:19F5H         SYMBOL        _bt_uart_write_data
  D:00A0H         PUBLIC        P2
  X:0071H         PUBLIC        bt_work_state
  D:00B0H         PUBLIC        P3
  C:161CH         PUBLIC        _set_bt_uart_buffer
  D:00C0H         PUBLIC        P4
  C:1D1CH         SYMBOL        heat_beat_check
  D:00C8H         PUBLIC        P5
  D:00A8H         PUBLIC        IE
  D:00B8H         PUBLIC        IP
  D:00D8H         PUBLIC        CCON
  C:1ECDH         SYMBOL        get_mcu_bt_mode
  X:0072H         PUBLIC        set_btmode_flag
  X:0073H         PUBLIC        stop_update_flag
  D:0098H         PUBLIC        SCON
  D:0088H         PUBLIC        TCON
  C:1CCBH         PUBLIC        _set_bt_uart_byte
  C:1D78H         SYMBOL        _?ix1000
  C:1C0FH         PUBLIC        get_queue_total_data
  C:1A49H         PUBLIC        _get_check_sum
  X:0074H         PUBLIC        reset_bt_flag
  C:17C1H         PUBLIC        Queue_Read_Byte
  X:0075H         PUBLIC        queue_in
  X:0078H         PUBLIC        bt_uart_rx_buf
  X:00E3H         PUBLIC        queue_out
  X:00E6H         PUBLIC        bt_uart_tx_buf
  C:0026H         PUBLIC        _data_handle
  C:1759H         PUBLIC        _bt_uart_write_frame
  C:1498H         SYMBOL        _data_point_handle
  D:00D0H         PUBLIC        PSW
  C:1944H         SYMBOL        product_info_update
  -------         PROC          _SET_BT_UART_BYTE
  X:0335H         SYMBOL        dest
  D:0005H         SYMBOL        byte
  -------         DO            
  D:0001H         SYMBOL        obj
  -------         ENDDO         
  C:1CCBH         LINE#         60
  C:1CD3H         LINE#         61
BL51 BANKED LINKER/LOCATER V6.22.2.0                                                  08/31/2021  12:55:22  PAGE 25


  C:1CD3H         LINE#         62
  C:1CDCH         LINE#         64
  C:1CE0H         LINE#         65
  C:1CEEH         LINE#         67
  C:1CF6H         LINE#         68
  -------         ENDPROC       _SET_BT_UART_BYTE
  -------         PROC          L?0085
  -------         ENDPROC       L?0085
  -------         PROC          _SET_BT_UART_BUFFER
  X:031FH         SYMBOL        dest
  X:0321H         SYMBOL        src
  X:0324H         SYMBOL        len
  -------         DO            
  D:0001H         SYMBOL        obj
  -------         ENDDO         
  C:161CH         LINE#         77
  C:162FH         LINE#         78
  C:162FH         LINE#         79
  C:1638H         LINE#         81
  C:1665H         LINE#         83
  C:1679H         LINE#         84
  C:167EH         LINE#         85
  -------         ENDPROC       _SET_BT_UART_BUFFER
  -------         PROC          _BT_UART_WRITE_DATA
  X:0337H         SYMBOL        in
  X:033AH         SYMBOL        len
  C:19F5H         LINE#         93
  C:1A06H         LINE#         94
  C:1A06H         LINE#         95
  C:1A1CH         LINE#         96
  C:1A1CH         LINE#         98
  C:1A1CH         LINE#         99
  C:1A2AH         LINE#         100
  C:1A2AH         LINE#         101
  C:1A3CH         LINE#         102
  C:1A46H         LINE#         103
  C:1A48H         LINE#         104
  -------         ENDPROC       _BT_UART_WRITE_DATA
  -------         PROC          _GET_CHECK_SUM
  X:0337H         SYMBOL        pack
  X:033AH         SYMBOL        pack_len
  -------         DO            
  D:0006H         SYMBOL        i
  X:033CH         SYMBOL        check_sum
  -------         ENDDO         
  C:1A49H         LINE#         112
  C:1A5AH         LINE#         113
  C:1A5AH         LINE#         115
  C:1A5DH         LINE#         117
  C:1A6CH         LINE#         118
  C:1A6CH         LINE#         119
  C:1A86H         LINE#         120
  C:1A8DH         LINE#         122
  C:1A92H         LINE#         123
  -------         ENDPROC       _GET_CHECK_SUM
  -------         PROC          _BT_UART_WRITE_FRAME
  D:0007H         SYMBOL        fr_type
BL51 BANKED LINKER/LOCATER V6.22.2.0                                                  08/31/2021  12:55:22  PAGE 26


  X:0335H         SYMBOL        len
  -------         DO            
  D:0006H         SYMBOL        check_sum
  -------         ENDDO         
  C:1759H         LINE#         131
  C:1761H         LINE#         132
  C:1761H         LINE#         133
  C:1761H         LINE#         135
  C:1767H         LINE#         136
  C:176BH         LINE#         137
  C:176EH         LINE#         138
  C:1771H         LINE#         139
  C:177EH         LINE#         140
  C:1781H         LINE#         142
  C:178EH         LINE#         143
  C:17A5H         LINE#         144
  C:17B8H         LINE#         146
  -------         ENDPROC       _BT_UART_WRITE_FRAME
  -------         PROC          HEAT_BEAT_CHECK
  -------         DO            
  D:0007H         SYMBOL        length
  X:0000H         SYMBOL        mcu_reset_state
  -------         ENDDO         
  C:1D1CH         LINE#         154
  C:1D1CH         LINE#         155
  C:1D1CH         LINE#         156
  C:1D1EH         LINE#         159
  C:1D24H         LINE#         160
  C:1D24H         LINE#         161
  C:1D29H         LINE#         162
  C:1D2FH         LINE#         163
  C:1D31H         LINE#         165
  C:1D31H         LINE#         166
  C:1D38H         LINE#         167
  C:1D38H         LINE#         169
  -------         ENDPROC       HEAT_BEAT_CHECK
  -------         PROC          PRODUCT_INFO_UPDATE
  -------         DO            
  X:031EH         SYMBOL        length
  -------         ENDDO         
  C:1944H         LINE#         177
  C:1944H         LINE#         178
  C:1944H         LINE#         179
  C:1949H         LINE#         181
  C:196FH         LINE#         182
  C:1995H         LINE#         184
  -------         ENDPROC       PRODUCT_INFO_UPDATE
  -------         PROC          GET_MCU_BT_MODE
  -------         DO            
  D:0007H         SYMBOL        length
  -------         ENDDO         
  C:1ECDH         LINE#         192
  C:1ECDH         LINE#         193
  C:1ECDH         LINE#         194
  C:1ECEH         LINE#         203
  -------         ENDPROC       GET_MCU_BT_MODE
  -------         PROC          _GET_DOWMLOAD_DPID_INDEX
BL51 BANKED LINKER/LOCATER V6.22.2.0                                                  08/31/2021  12:55:22  PAGE 27


  X:0325H         SYMBOL        dpid
  -------         DO            
  D:0006H         SYMBOL        index
  D:0007H         SYMBOL        total
  -------         ENDDO         
  C:1C44H         LINE#         211
  C:1C49H         LINE#         212
  C:1C49H         LINE#         214
  C:1C4CH         LINE#         216
  C:1C53H         LINE#         217
  C:1C53H         LINE#         218
  C:1C6DH         LINE#         219
  C:1C6DH         LINE#         220
  C:1C6DH         LINE#         221
  C:1C6DH         LINE#         222
  C:1C70H         LINE#         224
  C:1C72H         LINE#         225
  -------         ENDPROC       _GET_DOWMLOAD_DPID_INDEX
  -------         PROC          _DATA_POINT_HANDLE
  X:031EH         SYMBOL        value
  -------         DO            
  X:0321H         SYMBOL        dp_id
  D:0007H         SYMBOL        index
  X:0322H         SYMBOL        dp_type
  D:0007H         SYMBOL        ret
  X:0323H         SYMBOL        dp_len
  -------         ENDDO         
  C:1498H         LINE#         234
  C:14A3H         LINE#         235
  C:14A3H         LINE#         241
  C:14ABH         LINE#         242
  C:14B5H         LINE#         243
  C:14C2H         LINE#         244
  C:14D6H         LINE#         246
  C:14DBH         LINE#         248
  C:14F3H         LINE#         249
  C:14F3H         LINE#         251
  C:14F6H         LINE#         252
  C:14F6H         LINE#         254
  C:14F6H         LINE#         255
  C:151DH         LINE#         256
  C:151DH         LINE#         258
  C:151DH         LINE#         259
  -------         ENDPROC       _DATA_POINT_HANDLE
  -------         PROC          _DATA_HANDLE
  X:02F2H         SYMBOL        offset
  -------         DO            
  X:02F4H         SYMBOL        firmware_addr
  X:0001H         SYMBOL        firm_length
  X:0005H         SYMBOL        firm_update_flag
  X:02F7H         SYMBOL        dp_len
  X:02FBH         SYMBOL        length
  X:02FCH         SYMBOL        ret
  X:02FDH         SYMBOL        i
  X:02FFH         SYMBOL        total_len
  X:0301H         SYMBOL        cmd_type
  D:0007H         SYMBOL        bt_rssi
BL51 BANKED LINKER/LOCATER V6.22.2.0                                                  08/31/2021  12:55:22  PAGE 28


  X:0302H         SYMBOL        bt_time
  X:030AH         SYMBOL        time_zone_100
  X:030CH         SYMBOL        current_timems_string
  X:031AH         SYMBOL        time_stamp_ms
  -------         ENDDO         
  C:0026H         LINE#         267
  C:002EH         LINE#         268
  C:002EH         LINE#         277
  C:0033H         LINE#         281
  C:0048H         LINE#         289
  C:005BH         LINE#         293
  C:00A8H         LINE#         294
  C:00A8H         LINE#         295
  C:00A8H         LINE#         296
  C:00ABH         LINE#         297
  C:00ABH         LINE#         299
  C:00ABH         LINE#         300
  C:00AEH         LINE#         301
  C:00AEH         LINE#         303
  C:00AEH         LINE#         304
  C:00B1H         LINE#         305
  C:00B1H         LINE#         308
  C:00B1H         LINE#         309
  C:00C6H         LINE#         310
  C:00CDH         LINE#         311
  C:00CDH         LINE#         312
  C:00D0H         LINE#         314
  C:00D0H         LINE#         315
  C:00D5H         LINE#         316
  C:00D8H         LINE#         318
  C:00D8H         LINE#         319
  C:00DEH         LINE#         320
  C:00DFH         LINE#         323
  C:00DFH         LINE#         324
  C:00F8H         LINE#         325
  C:0111H         LINE#         327
  C:0131H         LINE#         328
  C:0131H         LINE#         329
  C:0154H         LINE#         330
  C:0198H         LINE#         332
  C:01BCH         LINE#         334
  C:01BCH         LINE#         335
  C:01BCH         LINE#         337
  C:01BCH         LINE#         339
  C:01BCH         LINE#         341
  C:01BCH         LINE#         343
  C:01D7H         LINE#         344
  C:01DAH         LINE#         346
  C:01DAH         LINE#         348
  C:01DAH         LINE#         349
  C:01DDH         LINE#         350
  C:01DDH         LINE#         353
  C:01DDH         LINE#         354
  C:0209H         LINE#         355
  C:0209H         LINE#         356
  C:0230H         LINE#         357
  C:0232H         LINE#         358
BL51 BANKED LINKER/LOCATER V6.22.2.0                                                  08/31/2021  12:55:22  PAGE 29


  C:0235H         LINE#         359
  C:0237H         LINE#         361
  C:0237H         LINE#         362
  C:023DH         LINE#         363
  C:023DH         LINE#         364
  C:023DH         LINE#         368
  C:023DH         LINE#         369
  C:0252H         LINE#         370
  C:0252H         LINE#         374
  C:0252H         LINE#         375
  C:0268H         LINE#         376
  C:026DH         LINE#         377
  C:026DH         LINE#         378
  C:027DH         LINE#         379
  C:027DH         LINE#         380
  C:029CH         LINE#         382
  C:02ABH         LINE#         383
  C:02C1H         LINE#         384
  C:02D0H         LINE#         385
  C:02E3H         LINE#         386
  C:02F2H         LINE#         387
  C:0305H         LINE#         388
  C:031DH         LINE#         389
  C:0320H         LINE#         390
  C:0335H         LINE#         391
  C:0335H         LINE#         392
  C:035DH         LINE#         393
  C:036CH         LINE#         394
  C:03A6H         LINE#         395
  C:03A9H         LINE#         396
  C:03C2H         LINE#         397
  C:03C2H         LINE#         398
  C:03E1H         LINE#         399
  C:03F0H         LINE#         400
  C:0406H         LINE#         401
  C:0415H         LINE#         402
  C:0428H         LINE#         403
  C:0437H         LINE#         404
  C:044AH         LINE#         405
  C:046FH         LINE#         406
  C:046FH         LINE#         407
  C:04BDH         LINE#         408
  C:04BFH         LINE#         410
  C:04BFH         LINE#         411
  C:0510H         LINE#         412
  C:0510H         LINE#         413
  C:0510H         LINE#         417
  C:0510H         LINE#         418
  C:0525H         LINE#         419
  C:0525H         LINE#         422
  C:0525H         LINE#         423
  C:053AH         LINE#         424
  C:053AH         LINE#         427
  C:053AH         LINE#         428
  C:054FH         LINE#         429
  C:054FH         LINE#         432
  C:054FH         LINE#         433
BL51 BANKED LINKER/LOCATER V6.22.2.0                                                  08/31/2021  12:55:22  PAGE 30


  C:0564H         LINE#         434
  C:0564H         LINE#         437
  C:0564H         LINE#         438
  C:0579H         LINE#         439
  C:0579H         LINE#         442
  C:0579H         LINE#         443
  C:0586H         LINE#         444
  C:058EH         LINE#         445
  C:0596H         LINE#         446
  C:0596H         LINE#         449
  C:0596H         LINE#         450
  C:0599H         LINE#         451
  C:0599H         LINE#         454
  C:0599H         LINE#         455
  C:0599H         LINE#         456
  C:0599H         LINE#         457
  C:0599H         LINE#         458
  C:0599H         LINE#         459
  C:05B2H         LINE#         460
  C:05CBH         LINE#         462
  C:05CBH         LINE#         465
  C:05CBH         LINE#         466
  C:05CBH         LINE#         467
  C:05CBH         LINE#         468
  -------         ENDPROC       _DATA_HANDLE
  -------         PROC          GET_QUEUE_TOTAL_DATA
  C:1C0FH         LINE#         475
  C:1C0FH         LINE#         476
  C:1C0FH         LINE#         477
  C:1C3EH         LINE#         478
  C:1C41H         LINE#         480
  C:1C43H         LINE#         481
  -------         ENDPROC       GET_QUEUE_TOTAL_DATA
  -------         PROC          QUEUE_READ_BYTE
  -------         DO            
  D:0007H         SYMBOL        value
  -------         ENDDO         
  C:17C1H         LINE#         488
  C:17C1H         LINE#         489
  C:17C1H         LINE#         492
  C:17F0H         LINE#         493
  C:17F0H         LINE#         495
  C:1803H         LINE#         496
  C:1803H         LINE#         498
  C:1811H         LINE#         499
  C:1811H         LINE#         501
  C:1825H         LINE#         502
  C:1825H         LINE#         504
  C:1825H         LINE#         505
  -------         ENDPROC       QUEUE_READ_BYTE
  -------         ENDMOD        SYSTEM

  -------         MODULE        ?C?COPY
  C:069CH         PUBLIC        ?C?COPY
  -------         ENDMOD        ?C?COPY

  -------         MODULE        ?C?CLDPTR
BL51 BANKED LINKER/LOCATER V6.22.2.0                                                  08/31/2021  12:55:22  PAGE 31


  C:06C2H         PUBLIC        ?C?CLDPTR
  -------         ENDMOD        ?C?CLDPTR

  -------         MODULE        ?C?CLDOPTR
  C:06DBH         PUBLIC        ?C?CLDOPTR
  -------         ENDMOD        ?C?CLDOPTR

  -------         MODULE        ?C?CSTPTR
  C:0708H         PUBLIC        ?C?CSTPTR
  -------         ENDMOD        ?C?CSTPTR

  -------         MODULE        ?C?CSTOPTR
  C:071AH         PUBLIC        ?C?CSTOPTR
  -------         ENDMOD        ?C?CSTOPTR

  -------         MODULE        ?C?IMUL
  C:073CH         PUBLIC        ?C?IMUL
  -------         ENDMOD        ?C?IMUL

  -------         MODULE        ?C?UIDIV
  C:074EH         PUBLIC        ?C?UIDIV
  -------         ENDMOD        ?C?UIDIV

  -------         MODULE        ?C?IILDX
  C:07A3H         PUBLIC        ?C?IILDX
  -------         ENDMOD        ?C?IILDX

  -------         MODULE        ?C?ILDIX
  C:07B9H         PUBLIC        ?C?ILDIX
  -------         ENDMOD        ?C?ILDIX

  -------         MODULE        ?C?LMUL
  C:07CFH         PUBLIC        ?C?LMUL
  -------         ENDMOD        ?C?LMUL

  -------         MODULE        ?C?SLDIV
  C:1A93H         PUBLIC        ?C?SLDIV
  -------         ENDMOD        ?C?SLDIV

  -------         MODULE        ?C?LNEG
  C:081EH         PUBLIC        ?C?LNEG
  -------         ENDMOD        ?C?LNEG

  -------         MODULE        ?C?ULCMP
  C:082CH         PUBLIC        ?C?ULCMP
  -------         ENDMOD        ?C?ULCMP

  -------         MODULE        ?C?ULSHR
  C:083DH         PUBLIC        ?C?ULSHR
  -------         ENDMOD        ?C?ULSHR

  -------         MODULE        ?C?LSHL
  C:0850H         PUBLIC        ?C?LSHL
  -------         ENDMOD        ?C?LSHL

  -------         MODULE        ?C?LSTXDATA
  C:0863H         PUBLIC        ?C?LSTXDATA
BL51 BANKED LINKER/LOCATER V6.22.2.0                                                  08/31/2021  12:55:22  PAGE 32


  -------         ENDMOD        ?C?LSTXDATA

  -------         MODULE        ?C?LSTKXDATA
  C:086FH         PUBLIC        ?C?LSTKXDATA
  -------         ENDMOD        ?C?LSTKXDATA

  -------         MODULE        ?C?CCASE
  C:08A0H         PUBLIC        ?C?CCASE
  -------         ENDMOD        ?C?CCASE

  -------         MODULE        ISDIGIT
  C:1E57H         PUBLIC        _isdigit
  -------         ENDMOD        ISDIGIT

  -------         MODULE        ISSPACE
  C:000EH         PUBLIC        _isspace
  -------         ENDMOD        ISSPACE

  -------         MODULE        ?C?ULDIV
  C:0902H         PUBLIC        ?C?ULDIV
  -------         ENDMOD        ?C?ULDIV

*** WARNING L16: UNCALLED SEGMENT, IGNORED FOR OVERLAY PROCESS
    SEGMENT: ?PR?_HEX_TO_BCD?MCU_API

*** WARNING L16: UNCALLED SEGMENT, IGNORED FOR OVERLAY PROCESS
    SEGMENT: ?PR?_INT_TO_BYTE?MCU_API

*** WARNING L16: UNCALLED SEGMENT, IGNORED FOR OVERLAY PROCESS
    SEGMENT: ?PR?MCU_GET_RESET_BT_FLAG?MCU_API

*** WARNING L16: UNCALLED SEGMENT, IGNORED FOR OVERLAY PROCESS
    SEGMENT: ?PR?MCU_RESET_BT?MCU_API

*** WARNING L16: UNCALLED SEGMENT, IGNORED FOR OVERLAY PROCESS
    SEGMENT: ?PR?MCU_GET_BT_WORK_STATE?MCU_API

*** WARNING L16: UNCALLED SEGMENT, IGNORED FOR OVERLAY PROCESS
    SEGMENT: ?PR?_MCU_DP_RAW_UPDATE?MCU_API

*** WARNING L16: UNCALLED SEGMENT, IGNORED FOR OVERLAY PROCESS
    SEGMENT: ?PR?_MCU_DP_BOOL_UPDATE?MCU_API

*** WARNING L16: UNCALLED SEGMENT, IGNORED FOR OVERLAY PROCESS
    SEGMENT: ?PR?_MCU_DP_STRING_UPDATE?MCU_API

*** WARNING L16: UNCALLED SEGMENT, IGNORED FOR OVERLAY PROCESS
    SEGMENT: ?PR?_MCU_DP_ENUM_UPDATE?MCU_API

*** WARNING L16: UNCALLED SEGMENT, IGNORED FOR OVERLAY PROCESS
    SEGMENT: ?PR?_MCU_DP_FAULT_UPDATE?MCU_API

*** WARNING L16: UNCALLED SEGMENT, IGNORED FOR OVERLAY PROCESS
    SEGMENT: ?PR?_MCU_GET_DP_DOWNLOAD_BOOL?MCU_API

*** WARNING L16: UNCALLED SEGMENT, IGNORED FOR OVERLAY PROCESS
    SEGMENT: ?PR?_MCU_GET_DP_DOWNLOAD_ENUM?MCU_API
BL51 BANKED LINKER/LOCATER V6.22.2.0                                                  08/31/2021  12:55:22  PAGE 33



*** WARNING L16: UNCALLED SEGMENT, IGNORED FOR OVERLAY PROCESS
    SEGMENT: ?PR?BT_UNBOUND_REQ?PROTOCOL

*** WARNING L16: UNCALLED SEGMENT, IGNORED FOR OVERLAY PROCESS
    SEGMENT: ?PR?BT_RF_TEST_REQ?PROTOCOL

*** WARNING L16: UNCALLED SEGMENT, IGNORED FOR OVERLAY PROCESS
    SEGMENT: ?PR?_BT_SEND_RECORDABLE_DP_DATA?PROTOCOL

*** WARNING L16: UNCALLED SEGMENT, IGNORED FOR OVERLAY PROCESS
    SEGMENT: ?PR?_BT_SEND_TIME_SYNC_REQ?PROTOCOL

*** WARNING L16: UNCALLED SEGMENT, IGNORED FOR OVERLAY PROCESS
    SEGMENT: ?PR?_BT_MODIFY_ADV_INTERVAL_REQ?PROTOCOL

*** WARNING L16: UNCALLED SEGMENT, IGNORED FOR OVERLAY PROCESS
    SEGMENT: ?PR?_BT_CLOSE_TIMER_REQ?PROTOCOL

*** WARNING L16: UNCALLED SEGMENT, IGNORED FOR OVERLAY PROCESS
    SEGMENT: ?PR?_BT_ENABLE_LOWPOER_REQ?PROTOCOL

*** WARNING L16: UNCALLED SEGMENT, IGNORED FOR OVERLAY PROCESS
    SEGMENT: ?PR?_BT_SEND_ONE_TIME_PASSWORD_TOKEN?PROTOCOL

*** WARNING L16: UNCALLED SEGMENT, IGNORED FOR OVERLAY PROCESS
    SEGMENT: ?PR?BT_DISCONNECT_REQ?PROTOCOL

*** WARNING L16: UNCALLED SEGMENT, IGNORED FOR OVERLAY PROCESS
    SEGMENT: ?PR?BT_SEND_MCU_VER?PROTOCOL

*** WARNING L1: UNRESOLVED EXTERNAL SYMBOL
    SYMBOL:  MCU_OTA_INIT_DISCONNECT
    MODULE:  .\Objects\system.obj (SYSTEM)

*** WARNING L2: REFERENCE MADE TO UNRESOLVED EXTERNAL
    SYMBOL:  MCU_OTA_INIT_DISCONNECT
    MODULE:  .\Objects\system.obj (SYSTEM)
    ADDRESS: 00CEH

Program Size: data=9.0 xdata=889 code=7947
LINK/LOCATE RUN COMPLETE.  24 WARNING(S),  0 ERROR(S)
